target datalayout = "e-m:e-p270:32:32-p271:32:32-p272:64:64-i64:64-i128:128-f80:128-n8:16:32:64-S128"
target triple = "x86_64-unknown-linux-gnu"

%"class.cineon::InStream" = type { ptr, ptr }

; Function Attrs: mustprogress uwtable
define hidden void @_ZN6cineon8InStream6RewindEv(ptr noundef nonnull align 8 dereferenceable(16) %this) unnamed_addr #6 align 2 {
entry:
  %this.addr = alloca ptr, align 8
  store ptr %this, ptr %this.addr, align 8
  %this1 = load ptr, ptr %this.addr, align 8
  %fp = getelementptr inbounds %"class.cineon::InStream", ptr %this1, i32 0, i32 1
  %0 = load ptr, ptr %fp, align 8
  %tobool = icmp ne ptr %0, null
  br i1 %tobool, label %if.then, label %if.end

if.then:                                          ; preds = %entry
  %fp2 = getelementptr inbounds %"class.cineon::InStream", ptr %this1, i32 0, i32 1
  %1 = load ptr, ptr %fp2, align 8
  call void @rewind(ptr noundef %1)
  br label %if.end

if.end:                                           ; preds = %if.then, %entry
  ret void
}